target datalayout = "e-m:e-p270:32:32-p271:32:32-p272:64:64-i64:64-i128:128-f80:128-n8:16:32:64-S128"
target triple = "x86_64-pc-linux-gnu"

%"class.tbb::detail::r1::control_storage" = type <{ ptr, i64, %"class.std::set", %"class.tbb::detail::d1::spin_mutex", [7 x i8] }>
%"class.std::set" = type { %"class.std::_Rb_tree" }
%"class.std::_Rb_tree" = type { %"struct.std::_Rb_tree<tbb::detail::d1::global_control *, tbb::detail::d1::global_control *, std::_Identity<tbb::detail::d1::global_control *>, tbb::detail::r1::control_storage_comparator, tbb::detail::d1::tbb_allocator<tbb::detail::d1::global_control *>>::_Rb_tree_impl" }
%"struct.std::_Rb_tree<tbb::detail::d1::global_control *, tbb::detail::d1::global_control *, std::_Identity<tbb::detail::d1::global_control *>, tbb::detail::r1::control_storage_comparator, tbb::detail::d1::tbb_allocator<tbb::detail::d1::global_control *>>::_Rb_tree_impl" = type { [8 x i8], %"struct.std::_Rb_tree_header" }
%"struct.std::_Rb_tree_header" = type { %"struct.std::_Rb_tree_node_base", i64 }
%"struct.std::_Rb_tree_node_base" = type { i32, ptr, ptr, ptr }
%"class.tbb::detail::d1::spin_mutex" = type { %"struct.std::atomic" }
%"struct.std::atomic" = type { %"struct.std::__atomic_base" }
%"struct.std::__atomic_base" = type { i8 }

@_ZN3tbb6detail2r1L8controlsE = internal global [4 x ptr] zeroinitializer, align 16
@__func__._ZN3tbb6detail2r134global_control_active_value_unsafeENS0_2d114global_control9parameterE = private unnamed_addr constant [35 x i8] c"global_control_active_value_unsafe\00", align 1
@.str = private unnamed_addr constant [42 x i8] c"param < d1::global_control::parameter_max\00", align 1

; Function Attrs: mustprogress nounwind sspstrong uwtable
define linkonce_odr noundef zeroext i1 @_ZNKSt8_Rb_treeIPN3tbb6detail2d114global_controlES4_St9_IdentityIS4_ENS1_2r126control_storage_comparatorENS2_13tbb_allocatorIS4_EEE5emptyEv(ptr noundef nonnull align 8 dereferenceable(48) %0) #6 comdat align 2 {
  %2 = alloca ptr, align 8
  store ptr %0, ptr %2, align 8, !tbaa !54
  %3 = load ptr, ptr %2, align 8
  %4 = getelementptr inbounds nuw %"class.std::_Rb_tree", ptr %3, i32 0, i32 0
  %5 = getelementptr inbounds i8, ptr %4, i64 8
  %6 = getelementptr inbounds nuw %"struct.std::_Rb_tree_header", ptr %5, i32 0, i32 1
  %7 = load i64, ptr %6, align 8, !tbaa !66
  %8 = icmp eq i64 %7, 0
  ret i1 %8
}

; Function Attrs: mustprogress nounwind sspstrong uwtable
define linkonce_odr noundef zeroext i1 @_ZNKSt3setIPN3tbb6detail2d114global_controlENS1_2r126control_storage_comparatorENS2_13tbb_allocatorIS4_EEE5emptyEv(ptr noundef nonnull align 8 dereferenceable(48) %0) #6 comdat align 2 {
  %2 = alloca ptr, align 8
  store ptr %0, ptr %2, align 8, !tbaa !52
  %3 = load ptr, ptr %2, align 8
  %4 = getelementptr inbounds nuw %"class.std::set", ptr %3, i32 0, i32 0
  %5 = call noundef zeroext i1 @_ZNKSt8_Rb_treeIPN3tbb6detail2d114global_controlES4_St9_IdentityIS4_ENS1_2r126control_storage_comparatorENS2_13tbb_allocatorIS4_EEE5emptyEv(ptr noundef nonnull align 8 dereferenceable(48) %4) #10
  ret i1 %5
}

; Function Attrs: mustprogress sspstrong uwtable
define linkonce_odr noundef i64 @_ZN3tbb6detail2r115control_storage19active_value_unsafeEv(ptr noundef nonnull align 8 dereferenceable(65) %0) #0 comdat align 2 {
  %2 = alloca ptr, align 8
  store ptr %0, ptr %2, align 8, !tbaa !3
  %3 = load ptr, ptr %2, align 8
  %4 = getelementptr inbounds nuw %"class.tbb::detail::r1::control_storage", ptr %3, i32 0, i32 2
  %5 = call noundef zeroext i1 @_ZNKSt3setIPN3tbb6detail2d114global_controlENS1_2r126control_storage_comparatorENS2_13tbb_allocatorIS4_EEE5emptyEv(ptr noundef nonnull align 8 dereferenceable(48) %4) #10
  br i1 %5, label %9, label %6

6:                                                ; preds = %1
  %7 = getelementptr inbounds nuw %"class.tbb::detail::r1::control_storage", ptr %3, i32 0, i32 1
  %8 = load i64, ptr %7, align 8, !tbaa !30
  br label %14

9:                                                ; preds = %1
  %10 = load ptr, ptr %3, align 8, !tbaa !10
  %11 = getelementptr inbounds ptr, ptr %10, i64 2
  %12 = load ptr, ptr %11, align 8
  %13 = call noundef i64 %12(ptr noundef nonnull align 8 dereferenceable(65) %3)
  br label %14

14:                                               ; preds = %9, %6
  %15 = phi i64 [ %8, %6 ], [ %13, %9 ]
  ret i64 %15
}

; Function Attrs: mustprogress sspstrong uwtable
define noundef i64 @_ZN3tbb6detail2r134global_control_active_value_unsafeENS0_2d114global_control9parameterE(i32 noundef %0) #0 {
  %2 = alloca i32, align 4
  store i32 %0, ptr %2, align 4, !tbaa !28
  %3 = load i32, ptr %2, align 4, !tbaa !28
  %4 = icmp slt i32 %3, 4
  br i1 %4, label %5, label %6

5:                                                ; preds = %1
  br label %7

6:                                                ; preds = %1
  call void @_ZN3tbb6detail2r117assertion_failureEPKciS3_S3_(ptr noundef @__func__._ZN3tbb6detail2r134global_control_active_value_unsafeENS0_2d114global_control9parameterE, i32 noundef 176, ptr noundef @.str, ptr noundef null)
  br label %7

7:                                                ; preds = %6, %5
  %8 = load i32, ptr %2, align 4, !tbaa !28
  %9 = zext i32 %8 to i64
  %10 = getelementptr inbounds nuw [4 x ptr], ptr @_ZN3tbb6detail2r1L8controlsE, i64 0, i64 %9
  %11 = load ptr, ptr %10, align 8, !tbaa !3
  %12 = call noundef i64 @_ZN3tbb6detail2r115control_storage19active_value_unsafeEv(ptr noundef nonnull align 8 dereferenceable(65) %11)
  ret i64 %12
}