; Function Attrs: mustprogress sspstrong uwtable
define noundef i64 @_ZN3tbb6detail2r134global_control_active_value_unsafeENS0_2d114global_control9parameterE(i32 noundef %0) local_unnamed_addr #0 {
  %2 = icmp slt i32 %0, 4
  br i1 %2, label %4, label %3

3:                                                ; preds = %1
  tail call void @_ZN3tbb6detail2r117assertion_failureEPKciS3_S3_(ptr noundef nonnull @__func__._ZN3tbb6detail2r134global_control_active_value_unsafeENS0_2d114global_control9parameterE, i32 noundef 176, ptr noundef nonnull @.str, ptr noundef null)
  br label %4

4:                                                ; preds = %1, %3
  %5 = zext i32 %0 to i64
  %6 = getelementptr inbounds nuw [4 x ptr], ptr @_ZN3tbb6detail2r1L8controlsE, i64 0, i64 %5
  %7 = load ptr, ptr %6, align 8, !tbaa !18
  %8 = getelementptr inbounds nuw i8, ptr %7, i64 56
  %9 = load i64, ptr %8, align 8, !tbaa !24
  %10 = icmp eq i64 %9, 0
  br i1 %10, label %14, label %11

11:                                               ; preds = %4
  %12 = getelementptr inbounds nuw i8, ptr %7, i64 8
  %13 = load i64, ptr %12, align 8, !tbaa !25
  br label %_ZN3tbb6detail2r115control_storage19active_value_unsafeEv.exit

14:                                               ; preds = %4
  %15 = load ptr, ptr %7, align 8, !tbaa !16
  %16 = getelementptr inbounds nuw i8, ptr %15, i64 16
  %17 = load ptr, ptr %16, align 8
  %18 = tail call noundef i64 %17(ptr noundef nonnull align 8 dereferenceable(65) %7)
  br label %_ZN3tbb6detail2r115control_storage19active_value_unsafeEv.exit

_ZN3tbb6detail2r115control_storage19active_value_unsafeEv.exit: ; preds = %11, %14
  %19 = phi i64 [ %13, %11 ], [ %18, %14 ]
  ret i64 %19
}